; Function Attrs: nounwind uwtable
define dso_local void @deauthenticateAndCloseClient(ptr noundef initializes((160, 168), (264, 268)) %0) local_unnamed_addr #0 {
  %2 = load ptr, ptr @DefaultUser, align 8, !tbaa !61
  %3 = getelementptr inbounds nuw i8, ptr %0, i64 160
  store ptr %2, ptr %3, align 8, !tbaa !93
  %4 = getelementptr inbounds nuw i8, ptr %0, i64 264
  store i32 0, ptr %4, align 8, !tbaa !64
  %5 = load ptr, ptr getelementptr inbounds nuw (i8, ptr @server, i64 1480), align 8, !tbaa !135
  %6 = icmp eq ptr %0, %5
  br i1 %6, label %7, label %11

7:                                                ; preds = %1
  %8 = getelementptr inbounds nuw i8, ptr %0, i64 8
  %9 = load i64, ptr %8, align 8, !tbaa !86
  %10 = or i64 %9, 1099511627776
  store i64 %10, ptr %8, align 8, !tbaa !86
  br label %12

11:                                               ; preds = %1
  tail call void @freeClientAsync(ptr noundef nonnull %0)
  br label %12

12:                                               ; preds = %11, %7
  ret void
}